target datalayout = "e-m:e-p270:32:32-p271:32:32-p272:64:64-i64:64-i128:128-f80:128-n8:16:32:64-S128"
target triple = "x86_64-pc-linux-gnu"

%struct._lv_obj_t = type { ptr, ptr, ptr, ptr, ptr, %struct.lv_area_t, i32, i16, i16 }
%struct.lv_area_t = type { i32, i32, i32, i32 }
%union.lv_style_value_t = type { ptr }

; Function Attrs: inlinehint nounwind uwtable
define internal i32 @lv_obj_get_style_transform_height(ptr noundef %0, i32 noundef %1) #3 {
  %3 = alloca ptr, align 8
  %4 = alloca i32, align 4
  %5 = alloca %union.lv_style_value_t, align 8
  store ptr %0, ptr %3, align 8, !tbaa !8
  store i32 %1, ptr %4, align 4, !tbaa !27
  call void @llvm.lifetime.start.p0(i64 8, ptr %5) #4
  %6 = load ptr, ptr %3, align 8, !tbaa !8
  %7 = load i32, ptr %4, align 4, !tbaa !27
  %8 = call ptr @lv_obj_get_style_prop(ptr noundef %6, i32 noundef %7, i8 noundef zeroext 105)
  %9 = getelementptr inbounds nuw %union.lv_style_value_t, ptr %5, i32 0, i32 0
  store ptr %8, ptr %9, align 8
  %10 = load i32, ptr %5, align 8, !tbaa !72
  call void @llvm.lifetime.end.p0(i64 8, ptr %5) #4
  ret i32 %10
}

; Function Attrs: inlinehint nounwind uwtable
define internal i32 @lv_obj_get_style_transform_width(ptr noundef %0, i32 noundef %1) #3 {
  %3 = alloca ptr, align 8
  %4 = alloca i32, align 4
  %5 = alloca %union.lv_style_value_t, align 8
  store ptr %0, ptr %3, align 8, !tbaa !8
  store i32 %1, ptr %4, align 4, !tbaa !27
  call void @llvm.lifetime.start.p0(i64 8, ptr %5) #4
  %6 = load ptr, ptr %3, align 8, !tbaa !8
  %7 = load i32, ptr %4, align 4, !tbaa !27
  %8 = call ptr @lv_obj_get_style_prop(ptr noundef %6, i32 noundef %7, i8 noundef zeroext 104)
  %9 = getelementptr inbounds nuw %union.lv_style_value_t, ptr %5, i32 0, i32 0
  store ptr %8, ptr %9, align 8
  %10 = load i32, ptr %5, align 8, !tbaa !72
  call void @llvm.lifetime.end.p0(i64 8, ptr %5) #4
  ret i32 %10
}

; Function Attrs: inlinehint nounwind uwtable
define internal i32 @lv_obj_get_style_pad_bottom(ptr noundef %0, i32 noundef %1) #3 {
  %3 = alloca ptr, align 8
  %4 = alloca i32, align 4
  %5 = alloca %union.lv_style_value_t, align 8
  store ptr %0, ptr %3, align 8, !tbaa !8
  store i32 %1, ptr %4, align 4, !tbaa !27
  call void @llvm.lifetime.start.p0(i64 8, ptr %5) #4
  %6 = load ptr, ptr %3, align 8, !tbaa !8
  %7 = load i32, ptr %4, align 4, !tbaa !27
  %8 = call ptr @lv_obj_get_style_prop(ptr noundef %6, i32 noundef %7, i8 noundef zeroext 17)
  %9 = getelementptr inbounds nuw %union.lv_style_value_t, ptr %5, i32 0, i32 0
  store ptr %8, ptr %9, align 8
  %10 = load i32, ptr %5, align 8, !tbaa !72
  call void @llvm.lifetime.end.p0(i64 8, ptr %5) #4
  ret i32 %10
}

; Function Attrs: inlinehint nounwind uwtable
define internal i32 @lv_obj_get_style_pad_top(ptr noundef %0, i32 noundef %1) #3 {
  %3 = alloca ptr, align 8
  %4 = alloca i32, align 4
  %5 = alloca %union.lv_style_value_t, align 8
  store ptr %0, ptr %3, align 8, !tbaa !8
  store i32 %1, ptr %4, align 4, !tbaa !27
  call void @llvm.lifetime.start.p0(i64 8, ptr %5) #4
  %6 = load ptr, ptr %3, align 8, !tbaa !8
  %7 = load i32, ptr %4, align 4, !tbaa !27
  %8 = call ptr @lv_obj_get_style_prop(ptr noundef %6, i32 noundef %7, i8 noundef zeroext 16)
  %9 = getelementptr inbounds nuw %union.lv_style_value_t, ptr %5, i32 0, i32 0
  store ptr %8, ptr %9, align 8
  %10 = load i32, ptr %5, align 8, !tbaa !72
  call void @llvm.lifetime.end.p0(i64 8, ptr %5) #4
  ret i32 %10
}

; Function Attrs: inlinehint nounwind uwtable
define internal i32 @lv_obj_get_style_pad_right(ptr noundef %0, i32 noundef %1) #3 {
  %3 = alloca ptr, align 8
  %4 = alloca i32, align 4
  %5 = alloca %union.lv_style_value_t, align 8
  store ptr %0, ptr %3, align 8, !tbaa !8
  store i32 %1, ptr %4, align 4, !tbaa !27
  call void @llvm.lifetime.start.p0(i64 8, ptr %5) #4
  %6 = load ptr, ptr %3, align 8, !tbaa !8
  %7 = load i32, ptr %4, align 4, !tbaa !27
  %8 = call ptr @lv_obj_get_style_prop(ptr noundef %6, i32 noundef %7, i8 noundef zeroext 19)
  %9 = getelementptr inbounds nuw %union.lv_style_value_t, ptr %5, i32 0, i32 0
  store ptr %8, ptr %9, align 8
  %10 = load i32, ptr %5, align 8, !tbaa !72
  call void @llvm.lifetime.end.p0(i64 8, ptr %5) #4
  ret i32 %10
}

; Function Attrs: inlinehint nounwind uwtable
define internal i32 @lv_obj_get_style_pad_left(ptr noundef %0, i32 noundef %1) #3 {
  %3 = alloca ptr, align 8
  %4 = alloca i32, align 4
  %5 = alloca %union.lv_style_value_t, align 8
  store ptr %0, ptr %3, align 8, !tbaa !8
  store i32 %1, ptr %4, align 4, !tbaa !27
  call void @llvm.lifetime.start.p0(i64 8, ptr %5) #4
  %6 = load ptr, ptr %3, align 8, !tbaa !8
  %7 = load i32, ptr %4, align 4, !tbaa !27
  %8 = call ptr @lv_obj_get_style_prop(ptr noundef %6, i32 noundef %7, i8 noundef zeroext 18)
  %9 = getelementptr inbounds nuw %union.lv_style_value_t, ptr %5, i32 0, i32 0
  store ptr %8, ptr %9, align 8
  %10 = load i32, ptr %5, align 8, !tbaa !72
  call void @llvm.lifetime.end.p0(i64 8, ptr %5) #4
  ret i32 %10
}

; Function Attrs: nounwind uwtable
define internal void @position_knob(ptr noundef %0, ptr noundef %1, i32 noundef %2, i1 noundef zeroext %3) #0 {
  %5 = alloca ptr, align 8
  %6 = alloca ptr, align 8
  %7 = alloca i32, align 4
  %8 = alloca i8, align 1
  %9 = alloca i32, align 4
  %10 = alloca i32, align 4
  %11 = alloca i32, align 4
  %12 = alloca i32, align 4
  %13 = alloca i32, align 4
  %14 = alloca i32, align 4
  store ptr %0, ptr %5, align 8, !tbaa !8
  store ptr %1, ptr %6, align 8, !tbaa !46
  store i32 %2, ptr %7, align 4, !tbaa !27
  %15 = zext i1 %3 to i8
  store i8 %15, ptr %8, align 1, !tbaa !44
  %16 = load i8, ptr %8, align 1, !tbaa !44, !range !41, !noundef !42
  %17 = trunc i8 %16 to i1
  br i1 %17, label %18, label %45

18:                                               ; preds = %4
  %19 = load i32, ptr %7, align 4, !tbaa !27
  %20 = ashr i32 %19, 1
  %21 = load ptr, ptr %6, align 8, !tbaa !46
  %22 = getelementptr inbounds nuw %struct.lv_area_t, ptr %21, i32 0, i32 0
  %23 = load i32, ptr %22, align 4, !tbaa !47
  %24 = sub nsw i32 %23, %20
  store i32 %24, ptr %22, align 4, !tbaa !47
  %25 = load ptr, ptr %6, align 8, !tbaa !46
  %26 = getelementptr inbounds nuw %struct.lv_area_t, ptr %25, i32 0, i32 0
  %27 = load i32, ptr %26, align 4, !tbaa !47
  %28 = load i32, ptr %7, align 4, !tbaa !27
  %29 = add nsw i32 %27, %28
  %30 = sub nsw i32 %29, 1
  %31 = load ptr, ptr %6, align 8, !tbaa !46
  %32 = getelementptr inbounds nuw %struct.lv_area_t, ptr %31, i32 0, i32 2
  store i32 %30, ptr %32, align 4, !tbaa !49
  %33 = load ptr, ptr %5, align 8, !tbaa !8
  %34 = getelementptr inbounds nuw %struct._lv_obj_t, ptr %33, i32 0, i32 5
  %35 = getelementptr inbounds nuw %struct.lv_area_t, ptr %34, i32 0, i32 1
  %36 = load i32, ptr %35, align 4, !tbaa !68
  %37 = load ptr, ptr %6, align 8, !tbaa !46
  %38 = getelementptr inbounds nuw %struct.lv_area_t, ptr %37, i32 0, i32 1
  store i32 %36, ptr %38, align 4, !tbaa !48
  %39 = load ptr, ptr %5, align 8, !tbaa !8
  %40 = getelementptr inbounds nuw %struct._lv_obj_t, ptr %39, i32 0, i32 5
  %41 = getelementptr inbounds nuw %struct.lv_area_t, ptr %40, i32 0, i32 3
  %42 = load i32, ptr %41, align 4, !tbaa !69
  %43 = load ptr, ptr %6, align 8, !tbaa !46
  %44 = getelementptr inbounds nuw %struct.lv_area_t, ptr %43, i32 0, i32 3
  store i32 %42, ptr %44, align 4, !tbaa !50
  br label %72

45:                                               ; preds = %4
  %46 = load i32, ptr %7, align 4, !tbaa !27
  %47 = ashr i32 %46, 1
  %48 = load ptr, ptr %6, align 8, !tbaa !46
  %49 = getelementptr inbounds nuw %struct.lv_area_t, ptr %48, i32 0, i32 1
  %50 = load i32, ptr %49, align 4, !tbaa !48
  %51 = sub nsw i32 %50, %47
  store i32 %51, ptr %49, align 4, !tbaa !48
  %52 = load ptr, ptr %6, align 8, !tbaa !46
  %53 = getelementptr inbounds nuw %struct.lv_area_t, ptr %52, i32 0, i32 1
  %54 = load i32, ptr %53, align 4, !tbaa !48
  %55 = load i32, ptr %7, align 4, !tbaa !27
  %56 = add nsw i32 %54, %55
  %57 = sub nsw i32 %56, 1
  %58 = load ptr, ptr %6, align 8, !tbaa !46
  %59 = getelementptr inbounds nuw %struct.lv_area_t, ptr %58, i32 0, i32 3
  store i32 %57, ptr %59, align 4, !tbaa !50
  %60 = load ptr, ptr %5, align 8, !tbaa !8
  %61 = getelementptr inbounds nuw %struct._lv_obj_t, ptr %60, i32 0, i32 5
  %62 = getelementptr inbounds nuw %struct.lv_area_t, ptr %61, i32 0, i32 0
  %63 = load i32, ptr %62, align 8, !tbaa !67
  %64 = load ptr, ptr %6, align 8, !tbaa !46
  %65 = getelementptr inbounds nuw %struct.lv_area_t, ptr %64, i32 0, i32 0
  store i32 %63, ptr %65, align 4, !tbaa !47
  %66 = load ptr, ptr %5, align 8, !tbaa !8
  %67 = getelementptr inbounds nuw %struct._lv_obj_t, ptr %66, i32 0, i32 5
  %68 = getelementptr inbounds nuw %struct.lv_area_t, ptr %67, i32 0, i32 2
  %69 = load i32, ptr %68, align 8, !tbaa !66
  %70 = load ptr, ptr %6, align 8, !tbaa !46
  %71 = getelementptr inbounds nuw %struct.lv_area_t, ptr %70, i32 0, i32 2
  store i32 %69, ptr %71, align 4, !tbaa !49
  br label %72

72:                                               ; preds = %45, %18
  call void @llvm.lifetime.start.p0(i64 4, ptr %9) #4
  %73 = load ptr, ptr %5, align 8, !tbaa !8
  %74 = call i32 @lv_obj_get_style_pad_left(ptr noundef %73, i32 noundef 196608)
  store i32 %74, ptr %9, align 4, !tbaa !27
  call void @llvm.lifetime.start.p0(i64 4, ptr %10) #4
  %75 = load ptr, ptr %5, align 8, !tbaa !8
  %76 = call i32 @lv_obj_get_style_pad_right(ptr noundef %75, i32 noundef 196608)
  store i32 %76, ptr %10, align 4, !tbaa !27
  call void @llvm.lifetime.start.p0(i64 4, ptr %11) #4
  %77 = load ptr, ptr %5, align 8, !tbaa !8
  %78 = call i32 @lv_obj_get_style_pad_top(ptr noundef %77, i32 noundef 196608)
  store i32 %78, ptr %11, align 4, !tbaa !27
  call void @llvm.lifetime.start.p0(i64 4, ptr %12) #4
  %79 = load ptr, ptr %5, align 8, !tbaa !8
  %80 = call i32 @lv_obj_get_style_pad_bottom(ptr noundef %79, i32 noundef 196608)
  store i32 %80, ptr %12, align 4, !tbaa !27
  call void @llvm.lifetime.start.p0(i64 4, ptr %13) #4
  %81 = load ptr, ptr %5, align 8, !tbaa !8
  %82 = call i32 @lv_obj_get_style_transform_width(ptr noundef %81, i32 noundef 196608)
  store i32 %82, ptr %13, align 4, !tbaa !27
  call void @llvm.lifetime.start.p0(i64 4, ptr %14) #4
  %83 = load ptr, ptr %5, align 8, !tbaa !8
  %84 = call i32 @lv_obj_get_style_transform_height(ptr noundef %83, i32 noundef 196608)
  store i32 %84, ptr %14, align 4, !tbaa !27
  %85 = load i32, ptr %9, align 4, !tbaa !27
  %86 = load i32, ptr %13, align 4, !tbaa !27
  %87 = add nsw i32 %85, %86
  %88 = load ptr, ptr %6, align 8, !tbaa !46
  %89 = getelementptr inbounds nuw %struct.lv_area_t, ptr %88, i32 0, i32 0
  %90 = load i32, ptr %89, align 4, !tbaa !47
  %91 = sub nsw i32 %90, %87
  store i32 %91, ptr %89, align 4, !tbaa !47
  %92 = load i32, ptr %10, align 4, !tbaa !27
  %93 = load i32, ptr %13, align 4, !tbaa !27
  %94 = add nsw i32 %92, %93
  %95 = load ptr, ptr %6, align 8, !tbaa !46
  %96 = getelementptr inbounds nuw %struct.lv_area_t, ptr %95, i32 0, i32 2
  %97 = load i32, ptr %96, align 4, !tbaa !49
  %98 = add nsw i32 %97, %94
  store i32 %98, ptr %96, align 4, !tbaa !49
  %99 = load i32, ptr %11, align 4, !tbaa !27
  %100 = load i32, ptr %14, align 4, !tbaa !27
  %101 = add nsw i32 %99, %100
  %102 = load ptr, ptr %6, align 8, !tbaa !46
  %103 = getelementptr inbounds nuw %struct.lv_area_t, ptr %102, i32 0, i32 1
  %104 = load i32, ptr %103, align 4, !tbaa !48
  %105 = sub nsw i32 %104, %101
  store i32 %105, ptr %103, align 4, !tbaa !48
  %106 = load i32, ptr %12, align 4, !tbaa !27
  %107 = load i32, ptr %14, align 4, !tbaa !27
  %108 = add nsw i32 %106, %107
  %109 = load ptr, ptr %6, align 8, !tbaa !46
  %110 = getelementptr inbounds nuw %struct.lv_area_t, ptr %109, i32 0, i32 3
  %111 = load i32, ptr %110, align 4, !tbaa !50
  %112 = add nsw i32 %111, %108
  store i32 %112, ptr %110, align 4, !tbaa !50
  call void @llvm.lifetime.end.p0(i64 4, ptr %14) #4
  call void @llvm.lifetime.end.p0(i64 4, ptr %13) #4
  call void @llvm.lifetime.end.p0(i64 4, ptr %12) #4
  call void @llvm.lifetime.end.p0(i64 4, ptr %11) #4
  call void @llvm.lifetime.end.p0(i64 4, ptr %10) #4
  call void @llvm.lifetime.end.p0(i64 4, ptr %9) #4
  ret void
}