; Function Attrs: nounwind uwtable
define internal fastcc void @position_knob(ptr noundef %0, ptr noundef nonnull captures(none) initializes((8, 16)) %1, i32 noundef %2, i1 noundef zeroext %3) unnamed_addr #0 {
  %5 = ashr i32 %2, 1
  br i1 %3, label %6, label %17

6:                                                ; preds = %4
  %7 = load i32, ptr %1, align 4, !tbaa !29
  %8 = sub nsw i32 %7, %5
  store i32 %8, ptr %1, align 4, !tbaa !29
  %9 = add i32 %2, -1
  %10 = add i32 %9, %8
  %11 = getelementptr inbounds nuw i8, ptr %1, i64 8
  store i32 %10, ptr %11, align 4, !tbaa !31
  %12 = getelementptr inbounds nuw i8, ptr %0, i64 44
  %13 = load i32, ptr %12, align 4, !tbaa !62
  %14 = getelementptr inbounds nuw i8, ptr %1, i64 4
  store i32 %13, ptr %14, align 4, !tbaa !30
  %15 = getelementptr inbounds nuw i8, ptr %0, i64 52
  %16 = load i32, ptr %15, align 4, !tbaa !63
  br label %28

17:                                               ; preds = %4
  %18 = getelementptr inbounds nuw i8, ptr %1, i64 4
  %19 = load i32, ptr %18, align 4, !tbaa !30
  %20 = sub nsw i32 %19, %5
  store i32 %20, ptr %18, align 4, !tbaa !30
  %21 = add i32 %2, -1
  %22 = add i32 %21, %20
  %23 = getelementptr inbounds nuw i8, ptr %0, i64 40
  %24 = load i32, ptr %23, align 8, !tbaa !61
  store i32 %24, ptr %1, align 4, !tbaa !29
  %25 = getelementptr inbounds nuw i8, ptr %0, i64 48
  %26 = load i32, ptr %25, align 8, !tbaa !60
  %27 = getelementptr inbounds nuw i8, ptr %1, i64 8
  store i32 %26, ptr %27, align 4, !tbaa !31
  br label %28

28:                                               ; preds = %17, %6
  %.sink = phi i32 [ %16, %6 ], [ %22, %17 ]
  %29 = getelementptr inbounds nuw i8, ptr %1, i64 12
  store i32 %.sink, ptr %29, align 4, !tbaa !32
  %30 = tail call ptr @lv_obj_get_style_prop(ptr noundef nonnull %0, i32 noundef 196608, i8 noundef zeroext 18) #5
  %31 = ptrtoint ptr %30 to i64
  %.sroa.0.0.extract.trunc.i = trunc i64 %31 to i32
  %32 = tail call ptr @lv_obj_get_style_prop(ptr noundef nonnull %0, i32 noundef 196608, i8 noundef zeroext 19) #5
  %33 = ptrtoint ptr %32 to i64
  %.sroa.0.0.extract.trunc.i36 = trunc i64 %33 to i32
  %34 = tail call ptr @lv_obj_get_style_prop(ptr noundef nonnull %0, i32 noundef 196608, i8 noundef zeroext 16) #5
  %35 = ptrtoint ptr %34 to i64
  %.sroa.0.0.extract.trunc.i37 = trunc i64 %35 to i32
  %36 = tail call ptr @lv_obj_get_style_prop(ptr noundef nonnull %0, i32 noundef 196608, i8 noundef zeroext 17) #5
  %37 = ptrtoint ptr %36 to i64
  %.sroa.0.0.extract.trunc.i38 = trunc i64 %37 to i32
  %38 = tail call ptr @lv_obj_get_style_prop(ptr noundef nonnull %0, i32 noundef 196608, i8 noundef zeroext 104) #5
  %39 = ptrtoint ptr %38 to i64
  %.sroa.0.0.extract.trunc.i39 = trunc i64 %39 to i32
  %40 = tail call ptr @lv_obj_get_style_prop(ptr noundef nonnull %0, i32 noundef 196608, i8 noundef zeroext 105) #5
  %41 = ptrtoint ptr %40 to i64
  %.sroa.0.0.extract.trunc.i40 = trunc i64 %41 to i32
  %42 = load i32, ptr %1, align 4, !tbaa !29
  %43 = add i32 %.sroa.0.0.extract.trunc.i39, %.sroa.0.0.extract.trunc.i
  %44 = sub i32 %42, %43
  store i32 %44, ptr %1, align 4, !tbaa !29
  %45 = add nsw i32 %.sroa.0.0.extract.trunc.i39, %.sroa.0.0.extract.trunc.i36
  %46 = getelementptr inbounds nuw i8, ptr %1, i64 8
  %47 = load i32, ptr %46, align 4, !tbaa !31
  %48 = add nsw i32 %45, %47
  store i32 %48, ptr %46, align 4, !tbaa !31
  %49 = getelementptr inbounds nuw i8, ptr %1, i64 4
  %50 = load i32, ptr %49, align 4, !tbaa !30
  %51 = add i32 %.sroa.0.0.extract.trunc.i40, %.sroa.0.0.extract.trunc.i37
  %52 = sub i32 %50, %51
  store i32 %52, ptr %49, align 4, !tbaa !30
  %53 = add nsw i32 %.sroa.0.0.extract.trunc.i40, %.sroa.0.0.extract.trunc.i38
  %54 = load i32, ptr %29, align 4, !tbaa !32
  %55 = add nsw i32 %53, %54
  store i32 %55, ptr %29, align 4, !tbaa !32
  ret void
}